target datalayout = "e-m:e-p270:32:32-p271:32:32-p272:64:64-i64:64-i128:128-f80:128-n8:16:32:64-S128"
target triple = "x86_64-pc-linux-gnu"

@.str.36 = private unnamed_addr constant [22 x i8] c"    (no certificate)\0A\00", align 1
@.str.37 = private unnamed_addr constant [17 x i8] c"    certificate\0A\00", align 1
@.str.38 = private unnamed_addr constant [21 x i8] c"        self-issued\0A\00", align 1
@.str.39 = private unnamed_addr constant [2 x i8] c" \00", align 1
@.str.40 = private unnamed_addr constant [23 x i8] c"        not yet valid\0A\00", align 1
@.str.41 = private unnamed_addr constant [23 x i8] c"        no more valid\0A\00", align 1

; Function Attrs: nounwind uwtable
define i32 @ossl_x509_print_ex_brief(ptr noundef %0, ptr noundef %1, i64 noundef %2) #0 {
  %4 = alloca i32, align 4
  %5 = alloca ptr, align 8
  %6 = alloca ptr, align 8
  %7 = alloca i64, align 8
  %8 = alloca i64, align 8
  %9 = alloca i32, align 4
  store ptr %0, ptr %5, align 8, !tbaa !15
  store ptr %1, ptr %6, align 8, !tbaa !11
  store i64 %2, ptr %7, align 8, !tbaa !13
  call void @llvm.lifetime.start.p0(i64 8, ptr %8) #4
  store i64 131871, ptr %8, align 8, !tbaa !13
  %10 = load ptr, ptr %6, align 8, !tbaa !11
  %11 = icmp eq ptr %10, null
  br i1 %11, label %12, label %17

12:                                               ; preds = %3
  %13 = load ptr, ptr %5, align 8, !tbaa !15
  %14 = call i32 (ptr, ptr, ...) @BIO_printf(ptr noundef %13, ptr noundef @.str.36)
  %15 = icmp sgt i32 %14, 0
  %16 = zext i1 %15 to i32
  store i32 %16, ptr %4, align 4
  store i32 1, ptr %9, align 4
  br label %88

17:                                               ; preds = %3
  %18 = load ptr, ptr %5, align 8, !tbaa !15
  %19 = call i32 (ptr, ptr, ...) @BIO_printf(ptr noundef %18, ptr noundef @.str.37)
  %20 = icmp sle i32 %19, 0
  br i1 %20, label %27, label %21

21:                                               ; preds = %17
  %22 = load ptr, ptr %5, align 8, !tbaa !15
  %23 = load ptr, ptr %6, align 8, !tbaa !11
  %24 = load i64, ptr %8, align 8, !tbaa !13
  %25 = call i32 @X509_print_ex(ptr noundef %22, ptr noundef %23, i64 noundef %24, i64 noundef -65)
  %26 = icmp ne i32 %25, 0
  br i1 %26, label %28, label %27

27:                                               ; preds = %21, %17
  store i32 0, ptr %4, align 4
  store i32 1, ptr %9, align 4
  br label %88

28:                                               ; preds = %21
  %29 = load ptr, ptr %6, align 8, !tbaa !11
  %30 = load ptr, ptr %6, align 8, !tbaa !11
  %31 = call i32 @X509_check_issued(ptr noundef %29, ptr noundef %30)
  %32 = icmp eq i32 %31, 0
  br i1 %32, label %33, label %39

33:                                               ; preds = %28
  %34 = load ptr, ptr %5, align 8, !tbaa !15
  %35 = call i32 (ptr, ptr, ...) @BIO_printf(ptr noundef %34, ptr noundef @.str.38)
  %36 = icmp sle i32 %35, 0
  br i1 %36, label %37, label %38

37:                                               ; preds = %33
  store i32 0, ptr %4, align 4
  store i32 1, ptr %9, align 4
  br label %88

38:                                               ; preds = %33
  br label %51

39:                                               ; preds = %28
  %40 = load ptr, ptr %5, align 8, !tbaa !15
  %41 = call i32 (ptr, ptr, ...) @BIO_printf(ptr noundef %40, ptr noundef @.str.39)
  %42 = icmp sle i32 %41, 0
  br i1 %42, label %49, label %43

43:                                               ; preds = %39
  %44 = load ptr, ptr %5, align 8, !tbaa !15
  %45 = load ptr, ptr %6, align 8, !tbaa !11
  %46 = load i64, ptr %8, align 8, !tbaa !13
  %47 = call i32 @X509_print_ex(ptr noundef %44, ptr noundef %45, i64 noundef %46, i64 noundef -17)
  %48 = icmp ne i32 %47, 0
  br i1 %48, label %50, label %49

49:                                               ; preds = %43, %39
  store i32 0, ptr %4, align 4
  store i32 1, ptr %9, align 4
  br label %88

50:                                               ; preds = %43
  br label %51

51:                                               ; preds = %50, %38
  %52 = load ptr, ptr %5, align 8, !tbaa !15
  %53 = load ptr, ptr %6, align 8, !tbaa !11
  %54 = load i64, ptr %8, align 8, !tbaa !13
  %55 = call i32 @X509_print_ex(ptr noundef %52, ptr noundef %53, i64 noundef %54, i64 noundef -37)
  %56 = icmp ne i32 %55, 0
  br i1 %56, label %58, label %57

57:                                               ; preds = %51
  store i32 0, ptr %4, align 4
  store i32 1, ptr %9, align 4
  br label %88

58:                                               ; preds = %51
  %59 = load ptr, ptr %6, align 8, !tbaa !11
  %60 = call ptr @X509_get0_notBefore(ptr noundef %59)
  %61 = call i32 @X509_cmp_current_time(ptr noundef %60)
  %62 = icmp sgt i32 %61, 0
  br i1 %62, label %63, label %69

63:                                               ; preds = %58
  %64 = load ptr, ptr %5, align 8, !tbaa !15
  %65 = call i32 (ptr, ptr, ...) @BIO_printf(ptr noundef %64, ptr noundef @.str.40)
  %66 = icmp sle i32 %65, 0
  br i1 %66, label %67, label %68

67:                                               ; preds = %63
  store i32 0, ptr %4, align 4
  store i32 1, ptr %9, align 4
  br label %88

68:                                               ; preds = %63
  br label %69

69:                                               ; preds = %68, %58
  %70 = load ptr, ptr %6, align 8, !tbaa !11
  %71 = call ptr @X509_get0_notAfter(ptr noundef %70)
  %72 = call i32 @X509_cmp_current_time(ptr noundef %71)
  %73 = icmp slt i32 %72, 0
  br i1 %73, label %74, label %80

74:                                               ; preds = %69
  %75 = load ptr, ptr %5, align 8, !tbaa !15
  %76 = call i32 (ptr, ptr, ...) @BIO_printf(ptr noundef %75, ptr noundef @.str.41)
  %77 = icmp sle i32 %76, 0
  br i1 %77, label %78, label %79

78:                                               ; preds = %74
  store i32 0, ptr %4, align 4
  store i32 1, ptr %9, align 4
  br label %88

79:                                               ; preds = %74
  br label %80

80:                                               ; preds = %79, %69
  %81 = load ptr, ptr %5, align 8, !tbaa !15
  %82 = load ptr, ptr %6, align 8, !tbaa !11
  %83 = load i64, ptr %8, align 8, !tbaa !13
  %84 = load i64, ptr %7, align 8, !tbaa !13
  %85 = xor i64 %84, -1
  %86 = and i64 %85, -8193
  %87 = call i32 @X509_print_ex(ptr noundef %81, ptr noundef %82, i64 noundef %83, i64 noundef %86)
  store i32 %87, ptr %4, align 4
  store i32 1, ptr %9, align 4
  br label %88

88:                                               ; preds = %80, %78, %67, %57, %49, %37, %27, %12
  call void @llvm.lifetime.end.p0(i64 8, ptr %8) #4
  %89 = load i32, ptr %4, align 4
  ret i32 %89
}