; Function Attrs: nounwind uwtable
define range(i32 0, 2) i32 @ossl_x509_print_ex_brief(ptr noundef %0, ptr noundef %1, i64 noundef %2) local_unnamed_addr #0 {
  %4 = icmp eq ptr %1, null
  br i1 %4, label %5, label %9

5:                                                ; preds = %3
  %6 = tail call i32 (ptr, ptr, ...) @BIO_printf(ptr noundef %0, ptr noundef nonnull @.str.36) #4
  %7 = icmp sgt i32 %6, 0
  %8 = zext i1 %7 to i32
  br label %X509_print_ex.exit.thread

9:                                                ; preds = %3
  %10 = tail call i32 (ptr, ptr, ...) @BIO_printf(ptr noundef %0, ptr noundef nonnull @.str.37) #4
  %11 = icmp slt i32 %10, 1
  br i1 %11, label %X509_print_ex.exit.thread, label %12

12:                                               ; preds = %9
  %13 = tail call i32 (ptr, ptr, ...) @BIO_printf(ptr noundef %0, ptr noundef nonnull @.str.13, i32 noundef 32) #4
  %14 = icmp slt i32 %13, 1
  br i1 %14, label %X509_print_ex.exit.thread, label %15

15:                                               ; preds = %12
  %16 = tail call ptr @X509_get_subject_name(ptr noundef nonnull %1) #4
  %17 = tail call i32 @X509_NAME_print_ex(ptr noundef %0, ptr noundef %16, i32 noundef 0, i64 noundef 131871) #4
  %18 = icmp slt i32 %17, 0
  br i1 %18, label %X509_print_ex.exit.thread, label %19

19:                                               ; preds = %15
  %20 = tail call i32 @BIO_write(ptr noundef %0, ptr noundef nonnull @.str.7, i32 noundef 1) #4
  %21 = icmp slt i32 %20, 1
  br i1 %21, label %X509_print_ex.exit.thread, label %X509_print_ex.exit

X509_print_ex.exit:                               ; preds = %19
  %22 = tail call i32 @X509_check_issued(ptr noundef nonnull %1, ptr noundef nonnull %1) #4
  %23 = icmp eq i32 %22, 0
  br i1 %23, label %24, label %27

24:                                               ; preds = %X509_print_ex.exit
  %25 = tail call i32 (ptr, ptr, ...) @BIO_printf(ptr noundef %0, ptr noundef nonnull @.str.38) #4
  %26 = icmp slt i32 %25, 1
  br i1 %26, label %X509_print_ex.exit.thread, label %X509_print_ex.exit28

27:                                               ; preds = %X509_print_ex.exit
  %28 = tail call i32 (ptr, ptr, ...) @BIO_printf(ptr noundef %0, ptr noundef nonnull @.str.39) #4
  %29 = icmp slt i32 %28, 1
  br i1 %29, label %X509_print_ex.exit.thread, label %30

30:                                               ; preds = %27
  %31 = tail call i32 (ptr, ptr, ...) @BIO_printf(ptr noundef %0, ptr noundef nonnull @.str.9, i32 noundef 32) #4
  %32 = icmp slt i32 %31, 1
  br i1 %32, label %X509_print_ex.exit.thread, label %33

33:                                               ; preds = %30
  %34 = tail call ptr @X509_get_issuer_name(ptr noundef nonnull %1) #4
  %35 = tail call i32 @X509_NAME_print_ex(ptr noundef %0, ptr noundef %34, i32 noundef 0, i64 noundef 131871) #4
  %36 = icmp slt i32 %35, 0
  br i1 %36, label %X509_print_ex.exit.thread, label %37

37:                                               ; preds = %33
  %38 = tail call i32 @BIO_write(ptr noundef %0, ptr noundef nonnull @.str.7, i32 noundef 1) #4
  %39 = icmp slt i32 %38, 1
  br i1 %39, label %X509_print_ex.exit.thread, label %X509_print_ex.exit28

X509_print_ex.exit28:                             ; preds = %37, %24
  %40 = tail call i32 @X509_print_ex(ptr noundef %0, ptr noundef nonnull %1, i64 noundef 131871, i64 noundef -37)
  %.not26 = icmp eq i32 %40, 0
  br i1 %.not26, label %X509_print_ex.exit.thread, label %41

41:                                               ; preds = %X509_print_ex.exit28
  %42 = tail call ptr @X509_get0_notBefore(ptr noundef nonnull %1) #4
  %43 = tail call i32 @X509_cmp_current_time(ptr noundef %42) #4
  %44 = icmp sgt i32 %43, 0
  br i1 %44, label %45, label %48

45:                                               ; preds = %41
  %46 = tail call i32 (ptr, ptr, ...) @BIO_printf(ptr noundef %0, ptr noundef nonnull @.str.40) #4
  %47 = icmp slt i32 %46, 1
  br i1 %47, label %X509_print_ex.exit.thread, label %48

48:                                               ; preds = %45, %41
  %49 = tail call ptr @X509_get0_notAfter(ptr noundef nonnull %1) #4
  %50 = tail call i32 @X509_cmp_current_time(ptr noundef %49) #4
  %51 = icmp slt i32 %50, 0
  br i1 %51, label %52, label %55

52:                                               ; preds = %48
  %53 = tail call i32 (ptr, ptr, ...) @BIO_printf(ptr noundef %0, ptr noundef nonnull @.str.41) #4
  %54 = icmp slt i32 %53, 1
  br i1 %54, label %X509_print_ex.exit.thread, label %55

55:                                               ; preds = %52, %48
  %56 = and i64 %2, -8193
  %57 = xor i64 %56, -8193
  %58 = tail call i32 @X509_print_ex(ptr noundef %0, ptr noundef nonnull %1, i64 noundef 131871, i64 noundef %57)
  br label %X509_print_ex.exit.thread

X509_print_ex.exit.thread:                        ; preds = %37, %33, %30, %19, %15, %12, %52, %45, %X509_print_ex.exit28, %27, %24, %9, %55, %5
  %.0 = phi i32 [ %8, %5 ], [ %58, %55 ], [ 0, %9 ], [ 0, %24 ], [ 0, %27 ], [ 0, %X509_print_ex.exit28 ], [ 0, %45 ], [ 0, %52 ], [ 0, %12 ], [ 0, %15 ], [ 0, %19 ], [ 0, %30 ], [ 0, %33 ], [ 0, %37 ]
  ret i32 %.0
}